; Function Attrs: mustprogress nounwind uwtable
define hidden void @_ZN10JfrPostBox17asynchronous_postEi(ptr noundef nonnull align 8 dereferenceable(21) %0, i32 noundef %1) local_unnamed_addr #1 align 2 {
  %3 = getelementptr inbounds i8, ptr %0, i64 16
  br label %4

4:                                                ; preds = %4, %2
  %5 = load volatile i32, ptr %3, align 8
  %6 = or i32 %5, %1
  %7 = tail call noundef i32 asm sideeffect "lock cmpxchgl $1,($3)", "={ax},r,{ax},r,~{cc},~{memory},~{dirflag},~{fpsr},~{flags}"(i32 %6, i32 %5, ptr nonnull %3) #10, !srcloc !6
  %8 = icmp eq i32 %7, %5
  %9 = and i32 %7, %1
  %10 = icmp eq i32 %9, %1
  %or.cond.i = or i1 %8, %10
  br i1 %or.cond.i, label %_ZN10JfrPostBox7depositEi.exit, label %4, !llvm.loop !7

_ZN10JfrPostBox7depositEi.exit:                   ; preds = %4
  %11 = load ptr, ptr @JfrMsg_lock, align 8
  %12 = tail call noundef zeroext i1 @_ZN5Mutex8try_lockEv(ptr noundef nonnull align 8 dereferenceable(104) %11) #10
  br i1 %12, label %13, label %_ZN15JfrMutexTryLockD2Ev.exit

13:                                               ; preds = %_ZN10JfrPostBox7depositEi.exit
  %14 = load ptr, ptr @JfrMsg_lock, align 8
  tail call void @_ZN7Monitor10notify_allEv(ptr noundef nonnull align 8 dereferenceable(104) %14) #10
  tail call void @_ZN5Mutex6unlockEv(ptr noundef nonnull align 8 dereferenceable(104) %11) #10
  br label %_ZN15JfrMutexTryLockD2Ev.exit

_ZN15JfrMutexTryLockD2Ev.exit:                    ; preds = %_ZN10JfrPostBox7depositEi.exit, %13
  ret void
}